target datalayout = "e-m:e-p270:32:32-p271:32:32-p272:64:64-i64:64-i128:128-f80:128-n8:16:32:64-S128"
target triple = "x86_64-pc-linux-gnu"

%struct.NMTPreInitAllocation = type { ptr, i64, ptr }
%class.NMTPreInitAllocationTable = type <{ [8191 x ptr], i32, [4 x i8] }>

; Function Attrs: mustprogress nounwind uwtable
define internal void @_ZL8raw_freePv(ptr noundef %0) #1 {
  %2 = alloca ptr, align 8
  store ptr %0, ptr %2, align 8
  %3 = load ptr, ptr %2, align 8
  call void @free(ptr noundef %3) #9
  ret void
}

; Function Attrs: mustprogress nounwind uwtable
define hidden void @_ZN20NMTPreInitAllocationdlEPv(ptr noundef %0) #1 align 2 {
  %2 = alloca ptr, align 8
  store ptr %0, ptr %2, align 8
  %3 = load ptr, ptr %2, align 8
  call void @_ZL8raw_freePv(ptr noundef %3)
  ret void
}

; Function Attrs: mustprogress nounwind uwtable
define hidden void @_ZN25NMTPreInitAllocationTableD2Ev(ptr noundef nonnull align 8 dereferenceable(65532) %0) unnamed_addr #1 align 2 {
  %2 = alloca ptr, align 8
  %3 = alloca i32, align 4
  %4 = alloca ptr, align 8
  %5 = alloca ptr, align 8
  store ptr %0, ptr %2, align 8
  %6 = load ptr, ptr %2, align 8
  store i32 0, ptr %3, align 4
  br label %7

7:                                                ; preds = %29, %1
  %8 = load i32, ptr %3, align 4
  %9 = icmp slt i32 %8, 8191
  br i1 %9, label %10, label %32

10:                                               ; preds = %7
  %11 = getelementptr inbounds %class.NMTPreInitAllocationTable, ptr %6, i32 0, i32 0
  %12 = load i32, ptr %3, align 4
  %13 = sext i32 %12 to i64
  %14 = getelementptr inbounds [8191 x ptr], ptr %11, i64 0, i64 %13
  %15 = load ptr, ptr %14, align 8
  store ptr %15, ptr %4, align 8
  br label %16

16:                                               ; preds = %26, %10
  %17 = load ptr, ptr %4, align 8
  %18 = icmp ne ptr %17, null
  br i1 %18, label %19, label %28

19:                                               ; preds = %16
  %20 = load ptr, ptr %4, align 8
  %21 = getelementptr inbounds %struct.NMTPreInitAllocation, ptr %20, i32 0, i32 0
  %22 = load ptr, ptr %21, align 8
  store ptr %22, ptr %5, align 8
  %23 = load ptr, ptr %4, align 8
  %24 = icmp eq ptr %23, null
  br i1 %24, label %26, label %25

25:                                               ; preds = %19
  call void @_ZN20NMTPreInitAllocationdlEPv(ptr noundef %23) #9
  br label %26

26:                                               ; preds = %25, %19
  %27 = load ptr, ptr %5, align 8
  store ptr %27, ptr %4, align 8
  br label %16, !llvm.loop !6

28:                                               ; preds = %16
  br label %29

29:                                               ; preds = %28
  %30 = load i32, ptr %3, align 4
  %31 = add nsw i32 %30, 1
  store i32 %31, ptr %3, align 4
  br label %7, !llvm.loop !8

32:                                               ; preds = %7
  ret void
}