; Function Attrs: mustprogress nounwind uwtable
define hidden void @_ZN25NMTPreInitAllocationTableD2Ev(ptr nocapture noundef nonnull readonly align 8 dereferenceable(65532) %0) unnamed_addr #0 align 2 {
  br label %2

2:                                                ; preds = %1, %._crit_edge
  %indvars.iv = phi i64 [ 0, %1 ], [ %indvars.iv.next, %._crit_edge ]
  %3 = getelementptr inbounds [8191 x ptr], ptr %0, i64 0, i64 %indvars.iv
  %4 = load ptr, ptr %3, align 8
  %.not8 = icmp eq ptr %4, null
  br i1 %.not8, label %._crit_edge, label %.lr.ph

.lr.ph:                                           ; preds = %2, %.lr.ph
  %.079 = phi ptr [ %5, %.lr.ph ], [ %4, %2 ]
  %5 = load ptr, ptr %.079, align 8
  tail call void @free(ptr noundef nonnull %.079) #13
  %.not = icmp eq ptr %5, null
  br i1 %.not, label %._crit_edge, label %.lr.ph, !llvm.loop !6

._crit_edge:                                      ; preds = %.lr.ph, %2
  %indvars.iv.next = add nuw nsw i64 %indvars.iv, 1
  %exitcond.not = icmp eq i64 %indvars.iv.next, 8191
  br i1 %exitcond.not, label %6, label %2, !llvm.loop !8

6:                                                ; preds = %._crit_edge
  ret void
}